; Function Attrs: mustprogress uwtable
define noundef double @_ZNK8QuantLib20ArithmeticAverageOIS8fairRateEv(ptr noundef nonnull align 8 dereferenceable(368) %this) local_unnamed_addr #8 align 2 {
entry:
  %vtable = load ptr, ptr %this, align 8, !tbaa !33
  %vfn = getelementptr inbounds i8, ptr %vtable, i64 24
  %0 = load ptr, ptr %vfn, align 8
  tail call void %0(ptr noundef nonnull align 8 dereferenceable(104) %this)
  %fixedRate_ = getelementptr inbounds nuw i8, ptr %this, i64 296
  %1 = load double, ptr %fixedRate_, align 8, !tbaa !75
  %NPV_ = getelementptr inbounds nuw i8, ptr %this, i64 16
  %2 = load double, ptr %NPV_, align 8, !tbaa !134
  %call = tail call noundef double @_ZNK8QuantLib20ArithmeticAverageOIS11fixedLegBPSEv(ptr noundef nonnull align 8 dereferenceable(368) %this)
  %div = fdiv double %call, 1.000000e-04
  %div2 = fdiv double %2, %div
  %sub = fsub double %1, %div2
  ret double %sub
}